; Function Attrs: mustprogress nofree norecurse nosync nounwind willreturn memory(readwrite, inaccessiblemem: none) uwtable
define dso_local void @_ZN5ImGui18SetWindowFontScaleEf(float noundef %0) local_unnamed_addr #34 {
  %2 = load ptr, ptr @GImGui, align 8, !tbaa !211
  %3 = getelementptr inbounds nuw i8, ptr %2, i64 4928
  %4 = load ptr, ptr %3, align 8, !tbaa !308
  %5 = getelementptr inbounds nuw i8, ptr %4, i64 204
  store i8 1, ptr %5, align 4, !tbaa !781
  %6 = getelementptr inbounds nuw i8, ptr %4, i64 680
  store float %0, ptr %6, align 8, !tbaa !729
  %7 = load ptr, ptr %4, align 8, !tbaa !714
  %8 = getelementptr inbounds nuw i8, ptr %7, i64 4188
  %9 = load float, ptr %8, align 4, !tbaa !877
  %10 = fmul float %0, %9
  %11 = getelementptr inbounds nuw i8, ptr %4, i64 896
  %12 = load ptr, ptr %11, align 8, !tbaa !878
  %.not.i = icmp eq ptr %12, null
  br i1 %.not.i, label %_ZNK11ImGuiWindow12CalcFontSizeEv.exit, label %13

13:                                               ; preds = %1
  %14 = getelementptr inbounds nuw i8, ptr %12, i64 680
  %15 = load float, ptr %14, align 8, !tbaa !729
  %16 = fmul float %10, %15
  br label %_ZNK11ImGuiWindow12CalcFontSizeEv.exit

_ZNK11ImGuiWindow12CalcFontSizeEv.exit:           ; preds = %1, %13
  %.0.i = phi float [ %16, %13 ], [ %10, %1 ]
  %17 = getelementptr inbounds nuw i8, ptr %2, i64 4216
  store float %.0.i, ptr %17, align 8, !tbaa !881
  %18 = getelementptr inbounds nuw i8, ptr %2, i64 4184
  store float %.0.i, ptr %18, align 8, !tbaa !449
  %19 = getelementptr inbounds nuw i8, ptr %2, i64 4176
  %20 = load ptr, ptr %19, align 8, !tbaa !448
  %21 = getelementptr inbounds nuw i8, ptr %20, i64 20
  %22 = load float, ptr %21, align 4, !tbaa !875
  %23 = fdiv float %.0.i, %22
  %24 = getelementptr inbounds nuw i8, ptr %2, i64 4220
  store float %23, ptr %24, align 4, !tbaa !882
  %25 = getelementptr inbounds nuw i8, ptr %2, i64 4192
  store float %23, ptr %25, align 8, !tbaa !879
  ret void
}